target datalayout = "e-m:e-p270:32:32-p271:32:32-p272:64:64-i64:64-i128:128-f80:128-n8:16:32:64-S128"
target triple = "x86_64-pc-linux-gnu"

%struct.buffer_s = type { ptr, i64 }
%struct.Range = type { ptr, i64 }
%struct.RoundBuff_t = type { ptr, i64, i64 }
%struct.ZSTD_customMem = type { ptr, ptr, ptr }
%struct.ZSTDMT_CCtx_s = type { ptr, ptr, ptr, ptr, ptr, %struct.ZSTD_CCtx_params_s, i64, i64, i32, %struct.InBuff_t, %struct.RoundBuff_t, %struct.SerialState, %struct.RSyncState_t, i32, i32, i32, i32, i32, i64, i64, i64, %struct.ZSTD_customMem, ptr, ptr, i8 }
%struct.ZSTD_CCtx_params_s = type { i32, %struct.ZSTD_compressionParameters, %struct.ZSTD_frameParameters, i32, i32, i64, i32, i32, i32, i32, i64, i32, i32, %struct.ldmParams_t, i32, i32, i32, i32, i32, i32, i32, i64, i32, i32, %struct.ZSTD_customMem, i32, i32, ptr, ptr, i32 }
%struct.ZSTD_compressionParameters = type { i32, i32, i32, i32, i32, i32, i32 }
%struct.ZSTD_frameParameters = type { i32, i32, i32 }
%struct.ldmParams_t = type { i32, i32, i32, i32, i32, i32 }
%struct.InBuff_t = type { %struct.Range, %struct.buffer_s, i64 }
%struct.SerialState = type { %union.pthread_mutex_t, %union.pthread_cond_t, %struct.ZSTD_CCtx_params_s, %struct.ldmState_t, %struct.XXH64_state_s, i32, %union.pthread_mutex_t, %union.pthread_cond_t, %struct.ZSTD_window_t }
%struct.ldmState_t = type { %struct.ZSTD_window_t, ptr, i32, ptr, [64 x i64], [64 x %struct.ldmMatchCandidate_t] }
%struct.ldmMatchCandidate_t = type { ptr, i32, i32, ptr }
%struct.XXH64_state_s = type { i64, [4 x i64], [4 x i64], i32, i32, i64 }
%union.pthread_mutex_t = type { %struct.__pthread_mutex_s }
%struct.__pthread_mutex_s = type { i32, i32, i32, i32, i32, i16, i16, %struct.__pthread_internal_list }
%struct.__pthread_internal_list = type { ptr, ptr }
%union.pthread_cond_t = type { %struct.__pthread_cond_s }
%struct.__pthread_cond_s = type { %union.__atomic_wide_counter, %union.__atomic_wide_counter, [2 x i32], [2 x i32], i32, i32, [2 x i32] }
%union.__atomic_wide_counter = type { i64 }
%struct.ZSTD_window_t = type { ptr, ptr, ptr, i32, i32, i32 }
%struct.RSyncState_t = type { i64, i64, i64 }
%struct.ZSTDMT_jobDescription = type { i64, i64, %union.pthread_mutex_t, %union.pthread_cond_t, ptr, ptr, ptr, ptr, %struct.buffer_s, %struct.Range, %struct.Range, i32, i32, i32, %struct.ZSTD_CCtx_params_s, ptr, i64, i64, i32 }

; Function Attrs: nounwind uwtable
define internal i32 @ERR_isError(i64 noundef %0) #0 {
  %2 = alloca i64, align 8
  store i64 %0, ptr %2, align 8, !tbaa !45
  %3 = load i64, ptr %2, align 8, !tbaa !45
  %4 = icmp ugt i64 %3, -120
  %5 = zext i1 %4 to i32
  ret i32 %5
}

; Function Attrs: nounwind uwtable
define i64 @ZSTDMT_toFlushNow(ptr noundef %0) #0 {
  %2 = alloca i64, align 8
  %3 = alloca ptr, align 8
  %4 = alloca i64, align 8
  %5 = alloca i32, align 4
  %6 = alloca i32, align 4
  %7 = alloca i32, align 4
  %8 = alloca ptr, align 8
  %9 = alloca i64, align 8
  %10 = alloca i64, align 8
  %11 = alloca i64, align 8
  store ptr %0, ptr %3, align 8, !tbaa !13
  call void @llvm.lifetime.start.p0(i64 8, ptr %4) #11
  call void @llvm.lifetime.start.p0(i64 4, ptr %5) #11
  %12 = load ptr, ptr %3, align 8, !tbaa !13
  %13 = getelementptr inbounds nuw %struct.ZSTDMT_CCtx_s, ptr %12, i32 0, i32 14
  %14 = load i32, ptr %13, align 4, !tbaa !95
  store i32 %14, ptr %5, align 4, !tbaa !3
  %15 = load i32, ptr %5, align 4, !tbaa !3
  %16 = load ptr, ptr %3, align 8, !tbaa !13
  %17 = getelementptr inbounds nuw %struct.ZSTDMT_CCtx_s, ptr %16, i32 0, i32 15
  %18 = load i32, ptr %17, align 8, !tbaa !91
  %19 = icmp eq i32 %15, %18
  br i1 %19, label %20, label %21

20:                                               ; preds = %1
  store i64 0, ptr %2, align 8
  store i32 1, ptr %6, align 4
  br label %73

21:                                               ; preds = %1
  call void @llvm.lifetime.start.p0(i64 4, ptr %7) #11
  %22 = load i32, ptr %5, align 4, !tbaa !3
  %23 = load ptr, ptr %3, align 8, !tbaa !13
  %24 = getelementptr inbounds nuw %struct.ZSTDMT_CCtx_s, ptr %23, i32 0, i32 13
  %25 = load i32, ptr %24, align 8, !tbaa !39
  %26 = and i32 %22, %25
  store i32 %26, ptr %7, align 4, !tbaa !3
  call void @llvm.lifetime.start.p0(i64 8, ptr %8) #11
  %27 = load ptr, ptr %3, align 8, !tbaa !13
  %28 = getelementptr inbounds nuw %struct.ZSTDMT_CCtx_s, ptr %27, i32 0, i32 1
  %29 = load ptr, ptr %28, align 8, !tbaa !38
  %30 = load i32, ptr %7, align 4, !tbaa !3
  %31 = zext i32 %30 to i64
  %32 = getelementptr inbounds nuw %struct.ZSTDMT_jobDescription, ptr %29, i64 %31
  store ptr %32, ptr %8, align 8, !tbaa !16
  %33 = load ptr, ptr %8, align 8, !tbaa !16
  %34 = getelementptr inbounds nuw %struct.ZSTDMT_jobDescription, ptr %33, i32 0, i32 2
  %35 = call i32 @pthread_mutex_lock(ptr noundef %34) #11
  call void @llvm.lifetime.start.p0(i64 8, ptr %9) #11
  %36 = load ptr, ptr %8, align 8, !tbaa !16
  %37 = getelementptr inbounds nuw %struct.ZSTDMT_jobDescription, ptr %36, i32 0, i32 1
  %38 = load i64, ptr %37, align 8, !tbaa !96
  store i64 %38, ptr %9, align 8, !tbaa !45
  call void @llvm.lifetime.start.p0(i64 8, ptr %10) #11
  %39 = load i64, ptr %9, align 8, !tbaa !45
  %40 = call i32 @ERR_isError(i64 noundef %39)
  %41 = icmp ne i32 %40, 0
  br i1 %41, label %42, label %43

42:                                               ; preds = %21
  br label %45

43:                                               ; preds = %21
  %44 = load i64, ptr %9, align 8, !tbaa !45
  br label %45

45:                                               ; preds = %43, %42
  %46 = phi i64 [ 0, %42 ], [ %44, %43 ]
  store i64 %46, ptr %10, align 8, !tbaa !45
  call void @llvm.lifetime.start.p0(i64 8, ptr %11) #11
  %47 = load i64, ptr %9, align 8, !tbaa !45
  %48 = call i32 @ERR_isError(i64 noundef %47)
  %49 = icmp ne i32 %48, 0
  br i1 %49, label %50, label %51

50:                                               ; preds = %45
  br label %55

51:                                               ; preds = %45
  %52 = load ptr, ptr %8, align 8, !tbaa !16
  %53 = getelementptr inbounds nuw %struct.ZSTDMT_jobDescription, ptr %52, i32 0, i32 17
  %54 = load i64, ptr %53, align 8, !tbaa !98
  br label %55

55:                                               ; preds = %51, %50
  %56 = phi i64 [ 0, %50 ], [ %54, %51 ]
  store i64 %56, ptr %11, align 8, !tbaa !45
  %57 = load i64, ptr %10, align 8, !tbaa !45
  %58 = load i64, ptr %11, align 8, !tbaa !45
  %59 = sub i64 %57, %58
  store i64 %59, ptr %4, align 8, !tbaa !45
  %60 = load i64, ptr %4, align 8, !tbaa !45
  %61 = icmp eq i64 %60, 0
  br i1 %61, label %62, label %63

62:                                               ; preds = %55
  br label %63

63:                                               ; preds = %62, %55
  call void @llvm.lifetime.end.p0(i64 8, ptr %11) #11
  call void @llvm.lifetime.end.p0(i64 8, ptr %10) #11
  call void @llvm.lifetime.end.p0(i64 8, ptr %9) #11
  %64 = load ptr, ptr %3, align 8, !tbaa !13
  %65 = getelementptr inbounds nuw %struct.ZSTDMT_CCtx_s, ptr %64, i32 0, i32 1
  %66 = load ptr, ptr %65, align 8, !tbaa !38
  %67 = load i32, ptr %7, align 4, !tbaa !3
  %68 = zext i32 %67 to i64
  %69 = getelementptr inbounds nuw %struct.ZSTDMT_jobDescription, ptr %66, i64 %68
  %70 = getelementptr inbounds nuw %struct.ZSTDMT_jobDescription, ptr %69, i32 0, i32 2
  %71 = call i32 @pthread_mutex_unlock(ptr noundef %70) #11
  call void @llvm.lifetime.end.p0(i64 8, ptr %8) #11
  call void @llvm.lifetime.end.p0(i64 4, ptr %7) #11
  %72 = load i64, ptr %4, align 8, !tbaa !45
  store i64 %72, ptr %2, align 8
  store i32 1, ptr %6, align 4
  br label %73

73:                                               ; preds = %63, %20
  call void @llvm.lifetime.end.p0(i64 4, ptr %5) #11
  call void @llvm.lifetime.end.p0(i64 8, ptr %4) #11
  %74 = load i64, ptr %2, align 8
  ret i64 %74
}