; Function Attrs: nounwind uwtable
define i64 @ZSTDMT_toFlushNow(ptr noundef readonly captures(none) %0) local_unnamed_addr #0 {
  %2 = getelementptr inbounds nuw i8, ptr %0, i64 3028
  %3 = load i32, ptr %2, align 4, !tbaa !82
  %4 = getelementptr inbounds nuw i8, ptr %0, i64 3032
  %5 = load i32, ptr %4, align 8, !tbaa !78
  %6 = icmp eq i32 %3, %5
  br i1 %6, label %30, label %7

7:                                                ; preds = %1
  %8 = getelementptr inbounds nuw i8, ptr %0, i64 3024
  %9 = load i32, ptr %8, align 8, !tbaa !36
  %10 = and i32 %9, %3
  %11 = getelementptr inbounds nuw i8, ptr %0, i64 8
  %12 = load ptr, ptr %11, align 8, !tbaa !35
  %13 = zext i32 %10 to i64
  %14 = getelementptr inbounds nuw %struct.ZSTDMT_jobDescription, ptr %12, i64 %13
  %15 = getelementptr inbounds nuw i8, ptr %14, i64 16
  %16 = tail call i32 @pthread_mutex_lock(ptr noundef nonnull %15) #14
  %17 = getelementptr inbounds nuw i8, ptr %14, i64 8
  %18 = load i64, ptr %17, align 8, !tbaa !83
  %19 = icmp ult i64 %18, -119
  %20 = select i1 %19, i64 %18, i64 0
  br i1 %19, label %21, label %24

21:                                               ; preds = %7
  %22 = getelementptr inbounds nuw i8, ptr %14, i64 440
  %23 = load i64, ptr %22, align 8, !tbaa !85
  br label %24

24:                                               ; preds = %7, %21
  %25 = phi i64 [ %23, %21 ], [ 0, %7 ]
  %26 = sub i64 %20, %25
  %27 = load ptr, ptr %11, align 8, !tbaa !35
  %28 = getelementptr inbounds nuw %struct.ZSTDMT_jobDescription, ptr %27, i64 %13, i32 2
  %29 = tail call i32 @pthread_mutex_unlock(ptr noundef nonnull %28) #14
  br label %30

30:                                               ; preds = %1, %24
  %.0 = phi i64 [ %26, %24 ], [ 0, %1 ]
  ret i64 %.0
}